; Function Attrs: mustprogress uwtable
define hidden void @_ZN4cvc58internal6theory3sep14SepNilTypeRule11computeTypeEPNS0_11NodeManagerENS0_12NodeTemplateILb0EEEbPSo(ptr dead_on_unwind noalias writable sret(%"class.cvc5::internal::TypeNode") align 8 %0, ptr noundef readnone captures(none) %1, ptr noundef readonly captures(none) %2, i1 noundef zeroext %3, ptr noundef readnone captures(none) %4) local_unnamed_addr #3 align 2 personality ptr @__gxx_personality_v0 {
  %6 = alloca %"class.cvc5::internal::NodeTemplate", align 8
  call void @llvm.lifetime.start.p0(i64 8, ptr nonnull %6)
  %7 = load ptr, ptr %2, align 8, !tbaa !11, !noalias !57
  store ptr %7, ptr %6, align 8, !tbaa !11, !noalias !57
  call void @_ZN4cvc58internal11NodeManager7getTypeENS0_12NodeTemplateILb0EEEbPSo(ptr dead_on_unwind writable sret(%"class.cvc5::internal::TypeNode") align 8 %0, ptr noundef nonnull %6, i1 noundef zeroext false, ptr noundef null)
  call void @llvm.lifetime.end.p0(i64 8, ptr nonnull %6)
  ret void
}